target datalayout = "e-m:e-p270:32:32-p271:32:32-p272:64:64-i64:64-i128:128-f80:128-n8:16:32:64-S128"
target triple = "x86_64-pc-linux-gnu"

@.str = private unnamed_addr constant [14 x i8] c"run-command.c\00", align 1
@main_thread_set = internal global i32 0, align 4
@main_thread = internal global i64 0, align 8

; Function Attrs: inlinehint nounwind willreturn memory(none) uwtable
define available_externally i32 @pthread_equal(i64 noundef %0, i64 noundef %1) #10 {
  %3 = alloca i64, align 8
  %4 = alloca i64, align 8
  store i64 %0, ptr %3, align 8, !tbaa !91
  store i64 %1, ptr %4, align 8, !tbaa !91
  %5 = load i64, ptr %3, align 8, !tbaa !91
  %6 = load i64, ptr %4, align 8, !tbaa !91
  %7 = icmp eq i64 %5, %6
  %8 = zext i1 %7 to i32
  ret i32 %8
}

; Function Attrs: nounwind uwtable
define dso_local i32 @in_async() #0 {
  %1 = alloca i32, align 4
  %2 = load i32, ptr @main_thread_set, align 4, !tbaa !16
  %3 = icmp ne i32 %2, 0
  br i1 %3, label %5, label %4

4:                                                ; preds = %0
  store i32 0, ptr %1, align 4
  br label %12

5:                                                ; preds = %0
  %6 = load i64, ptr @main_thread, align 8, !tbaa !91
  %7 = call i64 @pthread_self() #15
  %8 = call i32 @pthread_equal(i64 noundef %6, i64 noundef %7) #15
  %9 = icmp ne i32 %8, 0
  %10 = xor i1 %9, true
  %11 = zext i1 %10 to i32
  store i32 %11, ptr %1, align 4
  br label %12

12:                                               ; preds = %5, %4
  %13 = load i32, ptr %1, align 4
  ret i32 %13
}

; Function Attrs: nounwind uwtable
define dso_local void @check_pipe(i32 noundef %0) #0 {
  %2 = alloca i32, align 4
  store i32 %0, ptr %2, align 4, !tbaa !16
  %3 = load i32, ptr %2, align 4, !tbaa !16
  %4 = icmp eq i32 %3, 32
  br i1 %4, label %5, label %13

5:                                                ; preds = %1
  %6 = call i32 @in_async()
  %7 = icmp ne i32 %6, 0
  br i1 %7, label %8, label %9

8:                                                ; preds = %5
  call void @async_exit(i32 noundef 141) #16
  unreachable

9:                                                ; preds = %5
  %10 = call ptr @signal(i32 noundef 13, ptr noundef null) #13
  %11 = call i32 @raise(i32 noundef 13) #13
  %12 = call i32 @common_exit(ptr noundef @.str, i32 noundef 1142, i32 noundef 141)
  call void @exit(i32 noundef %12) #17
  unreachable

13:                                               ; preds = %1
  ret void
}