; Function Attrs: nounwind uwtable
define dso_local void @check_pipe(i32 noundef %0) local_unnamed_addr #3 {
  %2 = icmp eq i32 %0, 32
  br i1 %2, label %3, label %10

3:                                                ; preds = %1
  %.b.i = load i1, ptr @main_thread_set, align 4
  br i1 %.b.i, label %in_async.exit, label %in_async.exit.thread

in_async.exit:                                    ; preds = %3
  %4 = load i64, ptr @main_thread, align 8, !tbaa !82
  %5 = tail call i64 @pthread_self() #23
  %.not3 = icmp eq i64 %4, %5
  br i1 %.not3, label %in_async.exit.thread, label %6

6:                                                ; preds = %in_async.exit
  tail call fastcc void @async_exit() #25
  unreachable

in_async.exit.thread:                             ; preds = %3, %in_async.exit
  %7 = tail call ptr @signal(i32 noundef 13, ptr noundef null) #21
  %8 = tail call i32 @raise(i32 noundef 13) #21
  %9 = tail call i32 @common_exit(ptr noundef nonnull @.str, i32 noundef 1142, i32 noundef 141) #21
  tail call void @exit(i32 noundef %9) #24
  unreachable

10:                                               ; preds = %1
  ret void
}